; Function Attrs: nounwind uwtable
define void @Saig_ManCbaStop(ptr noundef %0) local_unnamed_addr #0 {
  %2 = getelementptr inbounds nuw i8, ptr %0, i64 40
  %3 = load ptr, ptr %2, align 8, !tbaa !89
  %4 = icmp eq ptr %3, null
  br i1 %4, label %Vec_VecFreeP.exit, label %5

5:                                                ; preds = %1
  %6 = getelementptr i8, ptr %3, i64 4
  %.val11.i.i = load i32, ptr %6, align 4, !tbaa !53
  %7 = icmp sgt i32 %.val11.i.i, 0
  br i1 %7, label %.lr.ph.i.i, label %.critedge.i.i

.lr.ph.i.i:                                       ; preds = %5
  %8 = getelementptr i8, ptr %3, i64 8
  br label %9

9:                                                ; preds = %16, %.lr.ph.i.i
  %.val14.i.i = phi i32 [ %.val11.i.i, %.lr.ph.i.i ], [ %.val.i.i, %16 ]
  %indvars.iv.i.i = phi i64 [ 0, %.lr.ph.i.i ], [ %indvars.iv.next.i.i, %16 ]
  %.val8.i.i = load ptr, ptr %8, align 8, !tbaa !55
  %10 = getelementptr inbounds nuw ptr, ptr %.val8.i.i, i64 %indvars.iv.i.i
  %11 = load ptr, ptr %10, align 8, !tbaa !35
  %.not.i.i = icmp eq ptr %11, null
  br i1 %.not.i.i, label %16, label %12

12:                                               ; preds = %9
  %13 = getelementptr inbounds nuw i8, ptr %11, i64 8
  %14 = load ptr, ptr %13, align 8, !tbaa !33
  %.not.i.i.i = icmp eq ptr %14, null
  br i1 %.not.i.i.i, label %Vec_PtrFree.exit.i.i, label %15

15:                                               ; preds = %12
  tail call void @free(ptr noundef nonnull %14) #20
  br label %Vec_PtrFree.exit.i.i

Vec_PtrFree.exit.i.i:                             ; preds = %15, %12
  tail call void @free(ptr noundef nonnull %11) #20
  %.val.pre.i.i = load i32, ptr %6, align 4, !tbaa !53
  br label %16

16:                                               ; preds = %Vec_PtrFree.exit.i.i, %9
  %.val.i.i = phi i32 [ %.val14.i.i, %9 ], [ %.val.pre.i.i, %Vec_PtrFree.exit.i.i ]
  %indvars.iv.next.i.i = add nuw nsw i64 %indvars.iv.i.i, 1
  %17 = sext i32 %.val.i.i to i64
  %18 = icmp slt i64 %indvars.iv.next.i.i, %17
  br i1 %18, label %9, label %.critedge.i.i, !llvm.loop !94

.critedge.i.i:                                    ; preds = %16, %5
  %19 = getelementptr inbounds nuw i8, ptr %3, i64 8
  %20 = load ptr, ptr %19, align 8, !tbaa !33
  %.not.i9.i.i = icmp eq ptr %20, null
  br i1 %.not.i9.i.i, label %Vec_VecFree.exit.i, label %21

21:                                               ; preds = %.critedge.i.i
  tail call void @free(ptr noundef nonnull %20) #20
  br label %Vec_VecFree.exit.i

Vec_VecFree.exit.i:                               ; preds = %21, %.critedge.i.i
  tail call void @free(ptr noundef nonnull %3) #20
  store ptr null, ptr %2, align 8, !tbaa !89
  br label %Vec_VecFreeP.exit

Vec_VecFreeP.exit:                                ; preds = %1, %Vec_VecFree.exit.i
  %22 = getelementptr inbounds nuw i8, ptr %0, i64 48
  %23 = load ptr, ptr %22, align 8, !tbaa !89
  %24 = icmp eq ptr %23, null
  br i1 %24, label %Vec_VecFreeP.exit20, label %25

25:                                               ; preds = %Vec_VecFreeP.exit
  %26 = getelementptr i8, ptr %23, i64 4
  %.val11.i.i6 = load i32, ptr %26, align 4, !tbaa !53
  %27 = icmp sgt i32 %.val11.i.i6, 0
  br i1 %27, label %.lr.ph.i.i10, label %.critedge.i.i7

.lr.ph.i.i10:                                     ; preds = %25
  %28 = getelementptr i8, ptr %23, i64 8
  br label %29

29:                                               ; preds = %36, %.lr.ph.i.i10
  %.val14.i.i11 = phi i32 [ %.val11.i.i6, %.lr.ph.i.i10 ], [ %.val.i.i18, %36 ]
  %indvars.iv.i.i12 = phi i64 [ 0, %.lr.ph.i.i10 ], [ %indvars.iv.next.i.i19, %36 ]
  %.val8.i.i13 = load ptr, ptr %28, align 8, !tbaa !55
  %30 = getelementptr inbounds nuw ptr, ptr %.val8.i.i13, i64 %indvars.iv.i.i12
  %31 = load ptr, ptr %30, align 8, !tbaa !35
  %.not.i.i14 = icmp eq ptr %31, null
  br i1 %.not.i.i14, label %36, label %32

32:                                               ; preds = %29
  %33 = getelementptr inbounds nuw i8, ptr %31, i64 8
  %34 = load ptr, ptr %33, align 8, !tbaa !33
  %.not.i.i.i15 = icmp eq ptr %34, null
  br i1 %.not.i.i.i15, label %Vec_PtrFree.exit.i.i16, label %35

35:                                               ; preds = %32
  tail call void @free(ptr noundef nonnull %34) #20
  br label %Vec_PtrFree.exit.i.i16

Vec_PtrFree.exit.i.i16:                           ; preds = %35, %32
  tail call void @free(ptr noundef nonnull %31) #20
  %.val.pre.i.i17 = load i32, ptr %26, align 4, !tbaa !53
  br label %36

36:                                               ; preds = %Vec_PtrFree.exit.i.i16, %29
  %.val.i.i18 = phi i32 [ %.val14.i.i11, %29 ], [ %.val.pre.i.i17, %Vec_PtrFree.exit.i.i16 ]
  %indvars.iv.next.i.i19 = add nuw nsw i64 %indvars.iv.i.i12, 1
  %37 = sext i32 %.val.i.i18 to i64
  %38 = icmp slt i64 %indvars.iv.next.i.i19, %37
  br i1 %38, label %29, label %.critedge.i.i7, !llvm.loop !94

.critedge.i.i7:                                   ; preds = %36, %25
  %39 = getelementptr inbounds nuw i8, ptr %23, i64 8
  %40 = load ptr, ptr %39, align 8, !tbaa !33
  %.not.i9.i.i8 = icmp eq ptr %40, null
  br i1 %.not.i9.i.i8, label %Vec_VecFree.exit.i9, label %41

41:                                               ; preds = %.critedge.i.i7
  tail call void @free(ptr noundef nonnull %40) #20
  br label %Vec_VecFree.exit.i9

Vec_VecFree.exit.i9:                              ; preds = %41, %.critedge.i.i7
  tail call void @free(ptr noundef nonnull %23) #20
  store ptr null, ptr %22, align 8, !tbaa !89
  br label %Vec_VecFreeP.exit20

Vec_VecFreeP.exit20:                              ; preds = %Vec_VecFreeP.exit, %Vec_VecFree.exit.i9
  %42 = getelementptr inbounds nuw i8, ptr %0, i64 24
  tail call void @Aig_ManStopP(ptr noundef nonnull %42) #20
  %43 = getelementptr inbounds nuw i8, ptr %0, i64 32
  %44 = load ptr, ptr %43, align 8, !tbaa !79
  %45 = icmp eq ptr %44, null
  br i1 %45, label %53, label %46

46:                                               ; preds = %Vec_VecFreeP.exit20
  %47 = getelementptr inbounds nuw i8, ptr %44, i64 8
  %48 = load ptr, ptr %47, align 8, !tbaa !11
  %.not.i = icmp eq ptr %48, null
  br i1 %.not.i, label %51, label %.thread.i

.thread.i:                                        ; preds = %46
  tail call void @free(ptr noundef nonnull %48) #20
  %49 = load ptr, ptr %43, align 8, !tbaa !79
  %50 = getelementptr inbounds nuw i8, ptr %49, i64 8
  store ptr null, ptr %50, align 8, !tbaa !11
  br label %51

51:                                               ; preds = %.thread.i, %46
  %52 = phi ptr [ %49, %.thread.i ], [ %44, %46 ]
  tail call void @free(ptr noundef nonnull %52) #20
  br label %53

53:                                               ; preds = %Vec_VecFreeP.exit20, %51
  tail call void @free(ptr noundef nonnull %0) #20
  ret void
}